; Function Attrs: mustprogress uwtable
define dso_local noundef ptr @_ZN4Luau6Parser15reportExprErrorERKNS_8LocationERKNS_8AstArrayIPNS_7AstExprEEEPKcz(ptr noundef nonnull align 8 dereferenceable(1072) %0, ptr noundef nonnull align 4 dereferenceable(16) %1, ptr noundef nonnull align 8 dereferenceable(16) %2, ptr noundef %3, ...) local_unnamed_addr #2 align 2 {
  %5 = alloca [1 x %struct.__va_list_tag], align 16
  call void @llvm.lifetime.start.p0(i64 24, ptr nonnull %5) #29
  call void @llvm.va_start.p0(ptr nonnull %5)
  call void @_ZN4Luau6Parser6reportERKNS_8LocationEPKcP13__va_list_tag(ptr noundef nonnull align 8 dereferenceable(1072) %0, ptr noundef nonnull align 4 dereferenceable(16) %1, ptr noundef %3, ptr noundef nonnull %5)
  call void @llvm.va_end.p0(ptr nonnull %5)
  %6 = getelementptr inbounds nuw i8, ptr %0, i64 216
  %7 = load ptr, ptr %6, align 8, !tbaa !297
  %8 = getelementptr inbounds nuw i8, ptr %0, i64 424
  %9 = getelementptr inbounds nuw i8, ptr %0, i64 432
  %10 = load ptr, ptr %9, align 8, !tbaa !24
  %11 = load ptr, ptr %8, align 8, !tbaa !21
  %12 = ptrtoint ptr %10 to i64
  %13 = ptrtoint ptr %11 to i64
  %14 = sub i64 %12, %13
  %15 = sdiv exact i64 %14, 56
  %16 = trunc i64 %15 to i32
  %17 = add i32 %16, -1
  %18 = call noundef ptr @_ZN4Luau9Allocator8allocateEm(ptr noundef nonnull align 8 dereferenceable(16) %7, i64 noundef 56)
  call void @_ZN4Luau12AstExprErrorC1ERKNS_8LocationERKNS_8AstArrayIPNS_7AstExprEEEj(ptr noundef nonnull align 8 dereferenceable(52) %18, ptr noundef nonnull align 4 dereferenceable(16) %1, ptr noundef nonnull align 8 dereferenceable(16) %2, i32 noundef %17)
  call void @llvm.lifetime.end.p0(i64 24, ptr nonnull %5) #29
  ret ptr %18
}